; Function Attrs: nounwind uwtable
define dso_local range(i64 0, 2) i64 @network_ge(ptr noundef readonly captures(none) %0) local_unnamed_addr #0 {
  %2 = getelementptr inbounds nuw i8, ptr %0, i64 32
  %3 = load i64, ptr %2, align 8
  %4 = inttoptr i64 %3 to ptr
  %5 = tail call ptr @pg_detoast_datum_packed(ptr noundef %4) #14
  %6 = getelementptr inbounds nuw i8, ptr %0, i64 48
  %7 = load i64, ptr %6, align 8
  %8 = inttoptr i64 %7 to ptr
  %9 = tail call ptr @pg_detoast_datum_packed(ptr noundef %8) #14
  %10 = tail call fastcc i32 @network_cmp_internal(ptr noundef %5, ptr noundef %9)
  %11 = icmp sgt i32 %10, -1
  %12 = zext i1 %11 to i64
  ret i64 %12
}